target datalayout = "e-m:e-p270:32:32-p271:32:32-p272:64:64-i64:64-i128:128-f80:128-n8:16:32:64-S128"
target triple = "x86_64-pc-linux-gnu"

%class.JVMFlag = type { ptr, ptr, i32, i32 }

@.str = private unnamed_addr constant [26 x i8] c"UnlockDiagnosticVMOptions\00", align 1
@.str.4 = private unnamed_addr constant [28 x i8] c"UnlockExperimentalVMOptions\00", align 1
@UnlockDiagnosticVMOptions = external global i8, align 1
@UnlockExperimentalVMOptions = external global i8, align 1

; Function Attrs: mustprogress nounwind uwtable
define linkonce_odr hidden noundef zeroext i1 @_ZNK7JVMFlag15is_experimentalEv(ptr noundef nonnull align 8 dereferenceable(24) %0) #1 comdat align 2 {
  %2 = alloca ptr, align 8
  store ptr %0, ptr %2, align 8
  %3 = load ptr, ptr %2, align 8
  %4 = getelementptr inbounds %class.JVMFlag, ptr %3, i32 0, i32 2
  %5 = load i32, ptr %4, align 8
  %6 = and i32 %5, 128
  %7 = icmp ne i32 %6, 0
  ret i1 %7
}

; Function Attrs: mustprogress nounwind uwtable
define linkonce_odr hidden noundef zeroext i1 @_ZNK7JVMFlag13is_diagnosticEv(ptr noundef nonnull align 8 dereferenceable(24) %0) #1 comdat align 2 {
  %2 = alloca ptr, align 8
  store ptr %0, ptr %2, align 8
  %3 = load ptr, ptr %2, align 8
  %4 = getelementptr inbounds %class.JVMFlag, ptr %3, i32 0, i32 2
  %5 = load i32, ptr %4, align 8
  %6 = and i32 %5, 64
  %7 = icmp ne i32 %6, 0
  ret i1 %7
}

; Function Attrs: mustprogress nounwind uwtable
define hidden noundef zeroext i1 @_ZNK7JVMFlag11is_unlockerEv(ptr noundef nonnull align 8 dereferenceable(24) %0) #1 align 2 {
  %2 = alloca ptr, align 8
  store ptr %0, ptr %2, align 8
  %3 = load ptr, ptr %2, align 8
  %4 = getelementptr inbounds %class.JVMFlag, ptr %3, i32 0, i32 1
  %5 = load ptr, ptr %4, align 8
  %6 = call i32 @strcmp(ptr noundef %5, ptr noundef @.str) #7
  %7 = icmp eq i32 %6, 0
  br i1 %7, label %13, label %8

8:                                                ; preds = %1
  %9 = getelementptr inbounds %class.JVMFlag, ptr %3, i32 0, i32 1
  %10 = load ptr, ptr %9, align 8
  %11 = call i32 @strcmp(ptr noundef %10, ptr noundef @.str.4) #7
  %12 = icmp eq i32 %11, 0
  br label %13

13:                                               ; preds = %8, %1
  %14 = phi i1 [ true, %1 ], [ %12, %8 ]
  ret i1 %14
}

; Function Attrs: mustprogress nounwind uwtable
define hidden noundef zeroext i1 @_ZNK7JVMFlag11is_unlockedEv(ptr noundef nonnull align 8 dereferenceable(24) %0) #1 align 2 {
  %2 = alloca i1, align 1
  %3 = alloca ptr, align 8
  store ptr %0, ptr %3, align 8
  %4 = load ptr, ptr %3, align 8
  %5 = call noundef zeroext i1 @_ZNK7JVMFlag13is_diagnosticEv(ptr noundef nonnull align 8 dereferenceable(24) %4)
  br i1 %5, label %6, label %9

6:                                                ; preds = %1
  %7 = load i8, ptr @UnlockDiagnosticVMOptions, align 1
  %8 = trunc i8 %7 to i1
  store i1 %8, ptr %2, align 1
  br label %15

9:                                                ; preds = %1
  %10 = call noundef zeroext i1 @_ZNK7JVMFlag15is_experimentalEv(ptr noundef nonnull align 8 dereferenceable(24) %4)
  br i1 %10, label %11, label %14

11:                                               ; preds = %9
  %12 = load i8, ptr @UnlockExperimentalVMOptions, align 1
  %13 = trunc i8 %12 to i1
  store i1 %13, ptr %2, align 1
  br label %15

14:                                               ; preds = %9
  store i1 true, ptr %2, align 1
  br label %15

15:                                               ; preds = %14, %11, %6
  %16 = load i1, ptr %2, align 1
  ret i1 %16
}

; Function Attrs: mustprogress nounwind uwtable
define hidden noundef ptr @_ZN7JVMFlag11fuzzy_matchEPKcmb(ptr noundef %0, i64 noundef %1, i1 noundef zeroext %2) #1 align 2 {
  %4 = alloca ptr, align 8
  %5 = alloca ptr, align 8
  %6 = alloca i64, align 8
  %7 = alloca i8, align 1
  %8 = alloca double, align 8
  %9 = alloca ptr, align 8
  %10 = alloca double, align 8
  %11 = alloca double, align 8
  %12 = alloca ptr, align 8
  store ptr %0, ptr %5, align 8
  store i64 %1, ptr %6, align 8
  %13 = zext i1 %2 to i8
  store i8 %13, ptr %7, align 1
  store double 0x3FE6666666666666, ptr %8, align 8
  store ptr null, ptr %9, align 8
  store double -1.000000e+00, ptr %11, align 8
  store ptr @_ZL9flagTable, ptr %12, align 8
  br label %14

14:                                               ; preds = %37, %3
  %15 = load ptr, ptr %12, align 8
  %16 = getelementptr inbounds %class.JVMFlag, ptr %15, i32 0, i32 1
  %17 = load ptr, ptr %16, align 8
  %18 = icmp ne ptr %17, null
  br i1 %18, label %19, label %40

19:                                               ; preds = %14
  %20 = load ptr, ptr %12, align 8
  %21 = getelementptr inbounds %class.JVMFlag, ptr %20, i32 0, i32 1
  %22 = load ptr, ptr %21, align 8
  %23 = load ptr, ptr %12, align 8
  %24 = getelementptr inbounds %class.JVMFlag, ptr %23, i32 0, i32 1
  %25 = load ptr, ptr %24, align 8
  %26 = call i64 @strlen(ptr noundef %25) #7
  %27 = load ptr, ptr %5, align 8
  %28 = load i64, ptr %6, align 8
  %29 = call noundef double @_ZN11StringUtils10similarityEPKcmS1_m(ptr noundef %22, i64 noundef %26, ptr noundef %27, i64 noundef %28)
  store double %29, ptr %10, align 8
  %30 = load double, ptr %10, align 8
  %31 = load double, ptr %11, align 8
  %32 = fcmp ogt double %30, %31
  br i1 %32, label %33, label %36

33:                                               ; preds = %19
  %34 = load double, ptr %10, align 8
  store double %34, ptr %11, align 8
  %35 = load ptr, ptr %12, align 8
  store ptr %35, ptr %9, align 8
  br label %36

36:                                               ; preds = %33, %19
  br label %37

37:                                               ; preds = %36
  %38 = load ptr, ptr %12, align 8
  %39 = getelementptr inbounds %class.JVMFlag, ptr %38, i32 1
  store ptr %39, ptr %12, align 8
  br label %14, !llvm.loop !10

40:                                               ; preds = %14
  %41 = load ptr, ptr %9, align 8
  %42 = icmp eq ptr %41, null
  br i1 %42, label %43, label %44

43:                                               ; preds = %40
  store ptr null, ptr %4, align 8
  br label %62

44:                                               ; preds = %40
  %45 = load ptr, ptr %9, align 8
  %46 = call noundef zeroext i1 @_ZNK7JVMFlag11is_unlockedEv(ptr noundef nonnull align 8 dereferenceable(24) %45)
  br i1 %46, label %55, label %47

47:                                               ; preds = %44
  %48 = load ptr, ptr %9, align 8
  %49 = call noundef zeroext i1 @_ZNK7JVMFlag11is_unlockerEv(ptr noundef nonnull align 8 dereferenceable(24) %48)
  br i1 %49, label %55, label %50

50:                                               ; preds = %47
  %51 = load i8, ptr %7, align 1
  %52 = trunc i8 %51 to i1
  br i1 %52, label %54, label %53

53:                                               ; preds = %50
  store ptr null, ptr %4, align 8
  br label %62

54:                                               ; preds = %50
  br label %55

55:                                               ; preds = %54, %47, %44
  %56 = load double, ptr %11, align 8
  %57 = load double, ptr %8, align 8
  %58 = fcmp olt double %56, %57
  br i1 %58, label %59, label %60

59:                                               ; preds = %55
  store ptr null, ptr %4, align 8
  br label %62

60:                                               ; preds = %55
  %61 = load ptr, ptr %9, align 8
  store ptr %61, ptr %4, align 8
  br label %62

62:                                               ; preds = %60, %59, %53, %43
  %63 = load ptr, ptr %4, align 8
  ret ptr %63
}