; Function Attrs: mustprogress nounwind uwtable
define hidden noundef ptr @_ZN7JVMFlag11fuzzy_matchEPKcmb(ptr noundef %0, i64 noundef %1, i1 noundef zeroext %2) local_unnamed_addr #5 align 2 {
  %4 = load ptr, ptr getelementptr inbounds (i8, ptr @_ZL9flagTable, i64 8), align 8
  %.not25 = icmp eq ptr %4, null
  br i1 %.not25, label %._crit_edge.thread, label %.lr.ph

.lr.ph:                                           ; preds = %3, %.lr.ph
  %5 = phi ptr [ %11, %.lr.ph ], [ %4, %3 ]
  %.028 = phi ptr [ %9, %.lr.ph ], [ @_ZL9flagTable, %3 ]
  %.01727 = phi double [ %.1, %.lr.ph ], [ -1.000000e+00, %3 ]
  %.01926 = phi ptr [ %.120, %.lr.ph ], [ null, %3 ]
  %6 = tail call i64 @strlen(ptr noundef nonnull dereferenceable(1) %5) #12
  %7 = tail call noundef double @_ZN11StringUtils10similarityEPKcmS1_m(ptr noundef nonnull %5, i64 noundef %6, ptr noundef %0, i64 noundef %1) #13
  %8 = fcmp ogt double %7, %.01727
  %.120 = select i1 %8, ptr %.028, ptr %.01926
  %.1 = select i1 %8, double %7, double %.01727
  %9 = getelementptr inbounds i8, ptr %.028, i64 24
  %10 = getelementptr inbounds i8, ptr %.028, i64 32
  %11 = load ptr, ptr %10, align 8
  %.not = icmp eq ptr %11, null
  br i1 %.not, label %._crit_edge, label %.lr.ph, !llvm.loop !10

._crit_edge:                                      ; preds = %.lr.ph
  %12 = fcmp olt double %.1, 0x3FE6666666666666
  %13 = select i1 %12, ptr null, ptr %.120
  %14 = icmp eq ptr %.120, null
  br i1 %14, label %._crit_edge.thread, label %15

15:                                               ; preds = %._crit_edge
  %16 = getelementptr inbounds i8, ptr %.120, i64 16
  %17 = load i32, ptr %16, align 8
  %18 = and i32 %17, 64
  %.not.i = icmp eq i32 %18, 0
  br i1 %.not.i, label %22, label %19

19:                                               ; preds = %15
  %20 = load i8, ptr @UnlockDiagnosticVMOptions, align 1
  %21 = trunc i8 %20 to i1
  br i1 %21, label %_ZNK7JVMFlag11is_unlockedEv.exit.thread, label %26

22:                                               ; preds = %15
  %23 = and i32 %17, 128
  %.not2.i = icmp eq i32 %23, 0
  br i1 %.not2.i, label %_ZNK7JVMFlag11is_unlockedEv.exit.thread, label %_ZNK7JVMFlag11is_unlockedEv.exit

_ZNK7JVMFlag11is_unlockedEv.exit:                 ; preds = %22
  %24 = load i8, ptr @UnlockExperimentalVMOptions, align 1
  %25 = trunc i8 %24 to i1
  br i1 %25, label %_ZNK7JVMFlag11is_unlockedEv.exit.thread, label %26

26:                                               ; preds = %19, %_ZNK7JVMFlag11is_unlockedEv.exit
  %27 = getelementptr inbounds i8, ptr %.120, i64 8
  %28 = load ptr, ptr %27, align 8
  %29 = tail call i32 @strcmp(ptr noundef nonnull dereferenceable(1) %28, ptr noundef nonnull dereferenceable(26) @.str) #12
  %30 = icmp eq i32 %29, 0
  br i1 %30, label %_ZNK7JVMFlag11is_unlockedEv.exit.thread, label %_ZNK7JVMFlag11is_unlockerEv.exit

_ZNK7JVMFlag11is_unlockerEv.exit:                 ; preds = %26
  %31 = tail call i32 @strcmp(ptr noundef nonnull dereferenceable(1) %28, ptr noundef nonnull dereferenceable(28) @.str.4) #12
  %32 = icmp eq i32 %31, 0
  %brmerge = or i1 %32, %2
  br i1 %brmerge, label %_ZNK7JVMFlag11is_unlockedEv.exit.thread, label %._crit_edge.thread

_ZNK7JVMFlag11is_unlockedEv.exit.thread:          ; preds = %26, %22, %19, %_ZNK7JVMFlag11is_unlockerEv.exit, %_ZNK7JVMFlag11is_unlockedEv.exit
  br label %._crit_edge.thread

._crit_edge.thread:                               ; preds = %3, %_ZNK7JVMFlag11is_unlockedEv.exit.thread, %_ZNK7JVMFlag11is_unlockerEv.exit, %._crit_edge
  %.018 = phi ptr [ null, %._crit_edge ], [ null, %_ZNK7JVMFlag11is_unlockerEv.exit ], [ %13, %_ZNK7JVMFlag11is_unlockedEv.exit.thread ], [ null, %3 ]
  ret ptr %.018
}